target datalayout = "e-m:e-p270:32:32-p271:32:32-p272:64:64-i64:64-i128:128-f80:128-n8:16:32:64-S128"
target triple = "x86_64-pc-linux-gnu"

%struct.pointf_s = type { double, double }

; Function Attrs: inlinehint nounwind uwtable
define internal i32 @fcmp(double noundef %0, double noundef %1) #5 {
  %3 = alloca i32, align 4
  %4 = alloca double, align 8
  %5 = alloca double, align 8
  store double %0, ptr %4, align 8, !tbaa !55
  store double %1, ptr %5, align 8, !tbaa !55
  %6 = load double, ptr %4, align 8, !tbaa !55
  %7 = load double, ptr %5, align 8, !tbaa !55
  %8 = fcmp olt double %6, %7
  br i1 %8, label %9, label %10

9:                                                ; preds = %2
  store i32 -1, ptr %3, align 4
  br label %16

10:                                               ; preds = %2
  %11 = load double, ptr %4, align 8, !tbaa !55
  %12 = load double, ptr %5, align 8, !tbaa !55
  %13 = fcmp ogt double %11, %12
  br i1 %13, label %14, label %15

14:                                               ; preds = %10
  store i32 1, ptr %3, align 4
  br label %16

15:                                               ; preds = %10
  store i32 0, ptr %3, align 4
  br label %16

16:                                               ; preds = %15, %14, %9
  %17 = load i32, ptr %3, align 4
  ret i32 %17
}

; Function Attrs: nounwind uwtable
define internal i32 @countHorzCross(ptr noundef %0, double noundef %1) #0 {
  %3 = alloca ptr, align 8
  %4 = alloca double, align 8
  %5 = alloca i32, align 4
  %6 = alloca i32, align 4
  %7 = alloca i32, align 4
  %8 = alloca i32, align 4
  store ptr %0, ptr %3, align 8, !tbaa !64
  store double %1, ptr %4, align 8, !tbaa !55
  call void @llvm.lifetime.start.p0(i64 4, ptr %5) #11
  call void @llvm.lifetime.start.p0(i64 4, ptr %6) #11
  call void @llvm.lifetime.start.p0(i64 4, ptr %7) #11
  call void @llvm.lifetime.start.p0(i64 4, ptr %8) #11
  store i32 0, ptr %8, align 4, !tbaa !65
  %9 = load ptr, ptr %3, align 8, !tbaa !64
  %10 = getelementptr inbounds %struct.pointf_s, ptr %9, i64 0
  %11 = getelementptr inbounds nuw %struct.pointf_s, ptr %10, i32 0, i32 1
  %12 = load double, ptr %11, align 8, !tbaa !72
  %13 = load double, ptr %4, align 8, !tbaa !55
  %14 = call i32 @fcmp(double noundef %12, double noundef %13)
  store i32 %14, ptr %6, align 4, !tbaa !65
  %15 = load i32, ptr %6, align 4, !tbaa !65
  %16 = icmp eq i32 %15, 0
  br i1 %16, label %17, label %20

17:                                               ; preds = %2
  %18 = load i32, ptr %8, align 4, !tbaa !65
  %19 = add nsw i32 %18, 1
  store i32 %19, ptr %8, align 4, !tbaa !65
  br label %20

20:                                               ; preds = %17, %2
  store i32 1, ptr %5, align 4, !tbaa !65
  br label %21

21:                                               ; preds = %44, %20
  %22 = load i32, ptr %5, align 4, !tbaa !65
  %23 = icmp sle i32 %22, 3
  br i1 %23, label %24, label %47

24:                                               ; preds = %21
  %25 = load i32, ptr %6, align 4, !tbaa !65
  store i32 %25, ptr %7, align 4, !tbaa !65
  %26 = load ptr, ptr %3, align 8, !tbaa !64
  %27 = load i32, ptr %5, align 4, !tbaa !65
  %28 = sext i32 %27 to i64
  %29 = getelementptr inbounds %struct.pointf_s, ptr %26, i64 %28
  %30 = getelementptr inbounds nuw %struct.pointf_s, ptr %29, i32 0, i32 1
  %31 = load double, ptr %30, align 8, !tbaa !72
  %32 = load double, ptr %4, align 8, !tbaa !55
  %33 = call i32 @fcmp(double noundef %31, double noundef %32)
  store i32 %33, ptr %6, align 4, !tbaa !65
  %34 = load i32, ptr %6, align 4, !tbaa !65
  %35 = load i32, ptr %7, align 4, !tbaa !65
  %36 = icmp ne i32 %34, %35
  br i1 %36, label %37, label %43

37:                                               ; preds = %24
  %38 = load i32, ptr %7, align 4, !tbaa !65
  %39 = icmp ne i32 %38, 0
  br i1 %39, label %40, label %43

40:                                               ; preds = %37
  %41 = load i32, ptr %8, align 4, !tbaa !65
  %42 = add nsw i32 %41, 1
  store i32 %42, ptr %8, align 4, !tbaa !65
  br label %43

43:                                               ; preds = %40, %37, %24
  br label %44

44:                                               ; preds = %43
  %45 = load i32, ptr %5, align 4, !tbaa !65
  %46 = add nsw i32 %45, 1
  store i32 %46, ptr %5, align 4, !tbaa !65
  br label %21, !llvm.loop !78

47:                                               ; preds = %21
  %48 = load i32, ptr %8, align 4, !tbaa !65
  call void @llvm.lifetime.end.p0(i64 4, ptr %8) #11
  call void @llvm.lifetime.end.p0(i64 4, ptr %7) #11
  call void @llvm.lifetime.end.p0(i64 4, ptr %6) #11
  call void @llvm.lifetime.end.p0(i64 4, ptr %5) #11
  ret i32 %48
}

; Function Attrs: nounwind uwtable
define internal double @findHorizontal(ptr noundef %0, double noundef %1, double noundef %2, double noundef %3, double noundef %4, double noundef %5) #0 {
  %7 = alloca double, align 8
  %8 = alloca ptr, align 8
  %9 = alloca double, align 8
  %10 = alloca double, align 8
  %11 = alloca double, align 8
  %12 = alloca double, align 8
  %13 = alloca double, align 8
  %14 = alloca [4 x %struct.pointf_s], align 16
  %15 = alloca [4 x %struct.pointf_s], align 16
  %16 = alloca double, align 8
  %17 = alloca i32, align 4
  %18 = alloca i32, align 4
  %19 = alloca %struct.pointf_s, align 8
  store ptr %0, ptr %8, align 8, !tbaa !64
  store double %1, ptr %9, align 8, !tbaa !55
  store double %2, ptr %10, align 8, !tbaa !55
  store double %3, ptr %11, align 8, !tbaa !55
  store double %4, ptr %12, align 8, !tbaa !55
  store double %5, ptr %13, align 8, !tbaa !55
  call void @llvm.lifetime.start.p0(i64 64, ptr %14) #11
  call void @llvm.lifetime.start.p0(i64 64, ptr %15) #11
  call void @llvm.lifetime.start.p0(i64 8, ptr %16) #11
  call void @llvm.lifetime.start.p0(i64 4, ptr %17) #11
  %20 = load double, ptr %9, align 8, !tbaa !55
  %21 = load double, ptr %10, align 8, !tbaa !55
  %22 = fcmp oeq double %20, %21
  br i1 %22, label %23, label %25

23:                                               ; preds = %6
  %24 = load double, ptr %9, align 8, !tbaa !55
  store double %24, ptr %7, align 8
  store i32 1, ptr %18, align 4
  br label %95

25:                                               ; preds = %6
  %26 = load ptr, ptr %8, align 8, !tbaa !64
  %27 = load double, ptr %11, align 8, !tbaa !55
  %28 = call i32 @countHorzCross(ptr noundef %26, double noundef %27)
  store i32 %28, ptr %17, align 4, !tbaa !65
  %29 = load i32, ptr %17, align 4, !tbaa !65
  %30 = icmp eq i32 %29, 0
  br i1 %30, label %31, label %32

31:                                               ; preds = %25
  store double -1.000000e+00, ptr %7, align 8
  store i32 1, ptr %18, align 4
  br label %95

32:                                               ; preds = %25
  %33 = load i32, ptr %17, align 4, !tbaa !65
  %34 = icmp eq i32 %33, 1
  br i1 %34, label %35, label %61

35:                                               ; preds = %32
  %36 = load ptr, ptr %8, align 8, !tbaa !64
  %37 = getelementptr inbounds %struct.pointf_s, ptr %36, i64 3
  %38 = getelementptr inbounds nuw %struct.pointf_s, ptr %37, i32 0, i32 1
  %39 = load double, ptr %38, align 8, !tbaa !72
  %40 = load double, ptr %11, align 8, !tbaa !55
  %41 = fsub double %39, %40
  %42 = call double @llvm.fabs.f64(double %41)
  %43 = fcmp ole double %42, 5.000000e-03
  br i1 %43, label %44, label %61

44:                                               ; preds = %35
  %45 = load double, ptr %12, align 8, !tbaa !55
  %46 = load ptr, ptr %8, align 8, !tbaa !64
  %47 = getelementptr inbounds %struct.pointf_s, ptr %46, i64 3
  %48 = getelementptr inbounds nuw %struct.pointf_s, ptr %47, i32 0, i32 0
  %49 = load double, ptr %48, align 8, !tbaa !69
  %50 = fcmp ole double %45, %49
  br i1 %50, label %51, label %60

51:                                               ; preds = %44
  %52 = load ptr, ptr %8, align 8, !tbaa !64
  %53 = getelementptr inbounds %struct.pointf_s, ptr %52, i64 3
  %54 = getelementptr inbounds nuw %struct.pointf_s, ptr %53, i32 0, i32 0
  %55 = load double, ptr %54, align 8, !tbaa !69
  %56 = load double, ptr %13, align 8, !tbaa !55
  %57 = fcmp ole double %55, %56
  br i1 %57, label %58, label %60

58:                                               ; preds = %51
  %59 = load double, ptr %10, align 8, !tbaa !55
  store double %59, ptr %7, align 8
  store i32 1, ptr %18, align 4
  br label %95

60:                                               ; preds = %51, %44
  store double -1.000000e+00, ptr %7, align 8
  store i32 1, ptr %18, align 4
  br label %95

61:                                               ; preds = %35, %32
  %62 = load ptr, ptr %8, align 8, !tbaa !64
  %63 = getelementptr inbounds [4 x %struct.pointf_s], ptr %14, i64 0, i64 0
  %64 = getelementptr inbounds [4 x %struct.pointf_s], ptr %15, i64 0, i64 0
  %65 = call { double, double } @Bezier(ptr noundef %62, double noundef 5.000000e-01, ptr noundef %63, ptr noundef %64)
  %66 = getelementptr inbounds nuw { double, double }, ptr %19, i32 0, i32 0
  %67 = extractvalue { double, double } %65, 0
  store double %67, ptr %66, align 8
  %68 = getelementptr inbounds nuw { double, double }, ptr %19, i32 0, i32 1
  %69 = extractvalue { double, double } %65, 1
  store double %69, ptr %68, align 8
  %70 = getelementptr inbounds [4 x %struct.pointf_s], ptr %14, i64 0, i64 0
  %71 = load double, ptr %9, align 8, !tbaa !55
  %72 = load double, ptr %9, align 8, !tbaa !55
  %73 = load double, ptr %10, align 8, !tbaa !55
  %74 = fadd double %72, %73
  %75 = fdiv double %74, 2.000000e+00
  %76 = load double, ptr %11, align 8, !tbaa !55
  %77 = load double, ptr %12, align 8, !tbaa !55
  %78 = load double, ptr %13, align 8, !tbaa !55
  %79 = call double @findHorizontal(ptr noundef %70, double noundef %71, double noundef %75, double noundef %76, double noundef %77, double noundef %78)
  store double %79, ptr %16, align 8, !tbaa !55
  %80 = load double, ptr %16, align 8, !tbaa !55
  %81 = fcmp oge double %80, 0.000000e+00
  br i1 %81, label %82, label %84

82:                                               ; preds = %61
  %83 = load double, ptr %16, align 8, !tbaa !55
  store double %83, ptr %7, align 8
  store i32 1, ptr %18, align 4
  br label %95

84:                                               ; preds = %61
  %85 = getelementptr inbounds [4 x %struct.pointf_s], ptr %15, i64 0, i64 0
  %86 = load double, ptr %9, align 8, !tbaa !55
  %87 = load double, ptr %10, align 8, !tbaa !55
  %88 = fadd double %86, %87
  %89 = fdiv double %88, 2.000000e+00
  %90 = load double, ptr %10, align 8, !tbaa !55
  %91 = load double, ptr %11, align 8, !tbaa !55
  %92 = load double, ptr %12, align 8, !tbaa !55
  %93 = load double, ptr %13, align 8, !tbaa !55
  %94 = call double @findHorizontal(ptr noundef %85, double noundef %89, double noundef %90, double noundef %91, double noundef %92, double noundef %93)
  store double %94, ptr %7, align 8
  store i32 1, ptr %18, align 4
  br label %95

95:                                               ; preds = %84, %82, %60, %58, %31, %23
  call void @llvm.lifetime.end.p0(i64 4, ptr %17) #11
  call void @llvm.lifetime.end.p0(i64 8, ptr %16) #11
  call void @llvm.lifetime.end.p0(i64 64, ptr %15) #11
  call void @llvm.lifetime.end.p0(i64 64, ptr %14) #11
  %96 = load double, ptr %7, align 8
  ret double %96
}