; Function Attrs: nounwind uwtable
define internal fastcc double @findHorizontal(ptr noundef %0, double noundef %1, double noundef %2, double noundef %3, double noundef %4, double noundef %5) unnamed_addr #0 {
  %7 = alloca [4 x %struct.pointf_s], align 16
  %8 = alloca [4 x %struct.pointf_s], align 16
  call void @llvm.lifetime.start.p0(i64 64, ptr nonnull %7) #11
  call void @llvm.lifetime.start.p0(i64 64, ptr nonnull %8) #11
  %9 = fcmp oeq double %1, %2
  br i1 %9, label %44, label %10

10:                                               ; preds = %6
  %11 = getelementptr inbounds nuw i8, ptr %0, i64 8
  %12 = load double, ptr %11, align 8, !tbaa !64
  %13 = fcmp olt double %12, %3
  %14 = fcmp ogt double %12, %3
  %..i.i = zext i1 %14 to i32
  %.0.i.i = select i1 %13, i32 -1, i32 %..i.i
  %15 = icmp eq i32 %.0.i.i, 0
  %spec.select.i = zext i1 %15 to i32
  br label %16

16:                                               ; preds = %16, %10
  %indvars.iv.i = phi i64 [ 1, %10 ], [ %indvars.iv.next.i, %16 ]
  %.122.i = phi i32 [ %spec.select.i, %10 ], [ %spec.select17.i, %16 ]
  %.01620.i = phi i32 [ %.0.i.i, %10 ], [ %.0.i19.i, %16 ]
  %17 = getelementptr inbounds nuw %struct.pointf_s, ptr %0, i64 %indvars.iv.i, i32 1
  %18 = load double, ptr %17, align 8, !tbaa !64
  %19 = fcmp olt double %18, %3
  %20 = fcmp ogt double %18, %3
  %..i18.i = zext i1 %20 to i32
  %.0.i19.i = select i1 %19, i32 -1, i32 %..i18.i
  %21 = icmp ne i32 %.0.i19.i, %.01620.i
  %22 = icmp ne i32 %.01620.i, 0
  %or.cond.i = and i1 %22, %21
  %23 = zext i1 %or.cond.i to i32
  %spec.select17.i = add nuw nsw i32 %.122.i, %23
  %indvars.iv.next.i = add nuw nsw i64 %indvars.iv.i, 1
  %exitcond.not.i = icmp eq i64 %indvars.iv.next.i, 4
  br i1 %exitcond.not.i, label %countHorzCross.exit, label %16, !llvm.loop !65

countHorzCross.exit:                              ; preds = %16
  switch i32 %spec.select17.i, label %36 [
    i32 0, label %44
    i32 1, label %24
  ]

24:                                               ; preds = %countHorzCross.exit
  %25 = getelementptr inbounds nuw i8, ptr %0, i64 56
  %26 = load double, ptr %25, align 8, !tbaa !64
  %27 = fsub double %26, %3
  %28 = tail call double @llvm.fabs.f64(double %27)
  %29 = fcmp ugt double %28, 5.000000e-03
  br i1 %29, label %36, label %30

30:                                               ; preds = %24
  %31 = getelementptr inbounds nuw i8, ptr %0, i64 48
  %32 = load double, ptr %31, align 8, !tbaa !62
  %33 = fcmp ugt double %4, %32
  %34 = fcmp ugt double %32, %5
  %or.cond = or i1 %33, %34
  br i1 %or.cond, label %35, label %44

35:                                               ; preds = %30
  br label %44

36:                                               ; preds = %countHorzCross.exit, %24
  %37 = call { double, double } @Bezier(ptr noundef nonnull %0, double noundef 5.000000e-01, ptr noundef nonnull %7, ptr noundef nonnull %8) #11
  %38 = fadd double %1, %2
  %39 = fmul double %38, 5.000000e-01
  %40 = call fastcc double @findHorizontal(ptr noundef nonnull %7, double noundef %1, double noundef %39, double noundef %3, double noundef %4, double noundef %5)
  %41 = fcmp ult double %40, 0.000000e+00
  br i1 %41, label %42, label %44

42:                                               ; preds = %36
  %43 = call fastcc double @findHorizontal(ptr noundef nonnull %8, double noundef %39, double noundef %2, double noundef %3, double noundef %4, double noundef %5)
  br label %44

44:                                               ; preds = %36, %30, %countHorzCross.exit, %6, %42, %35
  %.0 = phi double [ -1.000000e+00, %35 ], [ %43, %42 ], [ %1, %6 ], [ -1.000000e+00, %countHorzCross.exit ], [ %2, %30 ], [ %40, %36 ]
  call void @llvm.lifetime.end.p0(i64 64, ptr nonnull %8) #11
  call void @llvm.lifetime.end.p0(i64 64, ptr nonnull %7) #11
  ret double %.0
}